target datalayout = "e-m:e-p270:32:32-p271:32:32-p272:64:64-i64:64-i128:128-f80:128-n8:16:32:64-S128"
target triple = "x86_64-pc-linux-gnu"

%struct.AVRational = type { i32, i32 }
%struct.AVProbeData = type { ptr, ptr, i32, ptr }
%struct.AVFormatContext = type { ptr, ptr, ptr, ptr, ptr, i32, i32, ptr, i32, ptr, i32, ptr, ptr, i64, i64, i64, i32, i32, i32, i64, i64, ptr, i32, i32, ptr, i32, i32, i32, i32, ptr, i64, i32, i32, %struct.AVIOInterruptCB, i32, i32, i32, i32, i64, i32, i32, i32, i32, i32, i32, i32, i32, i32, i32, i32, i32, i64, i32, i32, i32, i32, i32, ptr, ptr, ptr, ptr, i32, ptr, ptr, ptr, ptr, i32, ptr, ptr, i64, ptr, ptr, ptr, i64 }
%struct.AVIOInterruptCB = type { ptr, ptr }
%struct.AVStream = type { ptr, i32, i32, ptr, ptr, %struct.AVRational, i64, i64, i64, i32, i32, %struct.AVRational, ptr, %struct.AVRational, %struct.AVPacket, i32, %struct.AVRational, i32 }
%struct.AVPacket = type { ptr, i64, i64, ptr, i32, i32, i32, ptr, i32, i64, i64, ptr, ptr, %struct.AVRational }
%struct.FFStream = type { %struct.AVStream, ptr, i32, ptr, i32, ptr, i32, %struct.anon, i32, i32, %struct.FFFrac, ptr, ptr, i32, i32, i64, i64, i32, i32, i32, i64, i64, i64, i32, i64, i64, i64, i32, i32, [17 x i64], [17 x i8], [17 x i64], i64, i8, i8, %struct.AVRational, %struct.AVProbeData, ptr, i64, i32, i32, i32, ptr, i32, i32, i64, i64, ptr, %struct.AVRational }
%struct.anon = type { ptr, i32 }
%struct.FFFrac = type { i64, i64, i64 }
%struct.AVIndexEntry = type { i64, i64, i32, i32 }

; Function Attrs: alwaysinline nounwind uwtable
define internal ptr @ffstream(ptr noundef %0) #7 {
  %2 = alloca ptr, align 8
  store ptr %0, ptr %2, align 8, !tbaa !42
  %3 = load ptr, ptr %2, align 8, !tbaa !42
  ret ptr %3
}

; Function Attrs: nounwind uwtable
define internal i32 @gxf_seek(ptr noundef %0, i32 noundef %1, i64 noundef %2, i32 noundef %3) #0 {
  %5 = alloca i32, align 4
  %6 = alloca ptr, align 8
  %7 = alloca i32, align 4
  %8 = alloca i64, align 8
  %9 = alloca i32, align 4
  %10 = alloca i64, align 8
  %11 = alloca i64, align 8
  %12 = alloca i64, align 8
  %13 = alloca ptr, align 8
  %14 = alloca ptr, align 8
  %15 = alloca i64, align 8
  %16 = alloca i64, align 8
  %17 = alloca i32, align 4
  %18 = alloca i32, align 4
  store ptr %0, ptr %6, align 8, !tbaa !13
  store i32 %1, ptr %7, align 4, !tbaa !34
  store i64 %2, ptr %8, align 8, !tbaa !72
  store i32 %3, ptr %9, align 4, !tbaa !34
  call void @llvm.lifetime.start.p0(i64 8, ptr %10) #10
  store i64 0, ptr %10, align 8, !tbaa !72
  call void @llvm.lifetime.start.p0(i64 8, ptr %11) #10
  call void @llvm.lifetime.start.p0(i64 8, ptr %12) #10
  store i64 104857600, ptr %12, align 8, !tbaa !72
  call void @llvm.lifetime.start.p0(i64 8, ptr %13) #10
  %19 = load ptr, ptr %6, align 8, !tbaa !13
  %20 = getelementptr inbounds nuw %struct.AVFormatContext, ptr %19, i32 0, i32 7
  %21 = load ptr, ptr %20, align 8, !tbaa !41
  %22 = getelementptr inbounds ptr, ptr %21, i64 0
  %23 = load ptr, ptr %22, align 8, !tbaa !42
  store ptr %23, ptr %13, align 8, !tbaa !42
  call void @llvm.lifetime.start.p0(i64 8, ptr %14) #10
  %24 = load ptr, ptr %13, align 8, !tbaa !42
  %25 = call ptr @ffstream(ptr noundef %24)
  store ptr %25, ptr %14, align 8, !tbaa !73
  call void @llvm.lifetime.start.p0(i64 8, ptr %15) #10
  %26 = load ptr, ptr %6, align 8, !tbaa !13
  %27 = getelementptr inbounds nuw %struct.AVFormatContext, ptr %26, i32 0, i32 7
  %28 = load ptr, ptr %27, align 8, !tbaa !41
  %29 = load i32, ptr %7, align 4, !tbaa !34
  %30 = sext i32 %29 to i64
  %31 = getelementptr inbounds ptr, ptr %28, i64 %30
  %32 = load ptr, ptr %31, align 8, !tbaa !42
  %33 = getelementptr inbounds nuw %struct.AVStream, ptr %32, i32 0, i32 6
  %34 = load i64, ptr %33, align 8, !tbaa !49
  store i64 %34, ptr %15, align 8, !tbaa !72
  call void @llvm.lifetime.start.p0(i64 8, ptr %16) #10
  call void @llvm.lifetime.start.p0(i64 4, ptr %17) #10
  %35 = load i64, ptr %8, align 8, !tbaa !72
  %36 = load i64, ptr %15, align 8, !tbaa !72
  %37 = icmp slt i64 %35, %36
  br i1 %37, label %38, label %40

38:                                               ; preds = %4
  %39 = load i64, ptr %15, align 8, !tbaa !72
  store i64 %39, ptr %8, align 8, !tbaa !72
  br label %40

40:                                               ; preds = %38, %4
  %41 = load ptr, ptr %13, align 8, !tbaa !42
  %42 = load i64, ptr %8, align 8, !tbaa !72
  %43 = load i64, ptr %15, align 8, !tbaa !72
  %44 = sub nsw i64 %42, %43
  %45 = call i32 @av_index_search_timestamp(ptr noundef %41, i64 noundef %44, i32 noundef 5)
  store i32 %45, ptr %17, align 4, !tbaa !34
  %46 = load i32, ptr %17, align 4, !tbaa !34
  %47 = icmp slt i32 %46, 0
  br i1 %47, label %48, label %49

48:                                               ; preds = %40
  store i32 -1, ptr %5, align 4
  store i32 1, ptr %18, align 4
  br label %118

49:                                               ; preds = %40
  %50 = load ptr, ptr %14, align 8, !tbaa !73
  %51 = getelementptr inbounds nuw %struct.FFStream, ptr %50, i32 0, i32 12
  %52 = load ptr, ptr %51, align 8, !tbaa !75
  %53 = load i32, ptr %17, align 4, !tbaa !34
  %54 = sext i32 %53 to i64
  %55 = getelementptr inbounds %struct.AVIndexEntry, ptr %52, i64 %54
  %56 = getelementptr inbounds nuw %struct.AVIndexEntry, ptr %55, i32 0, i32 0
  %57 = load i64, ptr %56, align 8, !tbaa !86
  store i64 %57, ptr %11, align 8, !tbaa !72
  %58 = load i32, ptr %17, align 4, !tbaa !34
  %59 = load ptr, ptr %14, align 8, !tbaa !73
  %60 = getelementptr inbounds nuw %struct.FFStream, ptr %59, i32 0, i32 13
  %61 = load i32, ptr %60, align 8, !tbaa !88
  %62 = sub nsw i32 %61, 2
  %63 = icmp slt i32 %58, %62
  br i1 %63, label %64, label %76

64:                                               ; preds = %49
  %65 = load ptr, ptr %14, align 8, !tbaa !73
  %66 = getelementptr inbounds nuw %struct.FFStream, ptr %65, i32 0, i32 12
  %67 = load ptr, ptr %66, align 8, !tbaa !75
  %68 = load i32, ptr %17, align 4, !tbaa !34
  %69 = add nsw i32 %68, 2
  %70 = sext i32 %69 to i64
  %71 = getelementptr inbounds %struct.AVIndexEntry, ptr %67, i64 %70
  %72 = getelementptr inbounds nuw %struct.AVIndexEntry, ptr %71, i32 0, i32 0
  %73 = load i64, ptr %72, align 8, !tbaa !86
  %74 = load i64, ptr %11, align 8, !tbaa !72
  %75 = sub i64 %73, %74
  store i64 %75, ptr %12, align 8, !tbaa !72
  br label %76

76:                                               ; preds = %64, %49
  %77 = load i64, ptr %12, align 8, !tbaa !72
  %78 = icmp ugt i64 %77, 204800
  br i1 %78, label %79, label %81

79:                                               ; preds = %76
  %80 = load i64, ptr %12, align 8, !tbaa !72
  br label %82

81:                                               ; preds = %76
  br label %82

82:                                               ; preds = %81, %79
  %83 = phi i64 [ %80, %79 ], [ 204800, %81 ]
  store i64 %83, ptr %12, align 8, !tbaa !72
  %84 = load ptr, ptr %6, align 8, !tbaa !13
  %85 = getelementptr inbounds nuw %struct.AVFormatContext, ptr %84, i32 0, i32 4
  %86 = load ptr, ptr %85, align 8, !tbaa !15
  %87 = load i64, ptr %11, align 8, !tbaa !72
  %88 = call i64 @avio_seek(ptr noundef %86, i64 noundef %87, i32 noundef 0)
  store i64 %88, ptr %10, align 8, !tbaa !72
  %89 = load i64, ptr %10, align 8, !tbaa !72
  %90 = icmp slt i64 %89, 0
  br i1 %90, label %91, label %94

91:                                               ; preds = %82
  %92 = load i64, ptr %10, align 8, !tbaa !72
  %93 = trunc i64 %92 to i32
  store i32 %93, ptr %5, align 4
  store i32 1, ptr %18, align 4
  br label %118

94:                                               ; preds = %82
  %95 = load ptr, ptr %6, align 8, !tbaa !13
  %96 = load i64, ptr %12, align 8, !tbaa !72
  %97 = load i64, ptr %8, align 8, !tbaa !72
  %98 = trunc i64 %97 to i32
  %99 = call i64 @gxf_resync_media(ptr noundef %95, i64 noundef %96, i32 noundef -1, i32 noundef %98)
  store i64 %99, ptr %16, align 8, !tbaa !72
  %100 = load i64, ptr %16, align 8, !tbaa !72
  %101 = load i64, ptr %8, align 8, !tbaa !72
  %102 = sub nsw i64 %100, %101
  %103 = icmp sge i64 %102, 0
  br i1 %103, label %104, label %108

104:                                              ; preds = %94
  %105 = load i64, ptr %16, align 8, !tbaa !72
  %106 = load i64, ptr %8, align 8, !tbaa !72
  %107 = sub nsw i64 %105, %106
  br label %113

108:                                              ; preds = %94
  %109 = load i64, ptr %16, align 8, !tbaa !72
  %110 = load i64, ptr %8, align 8, !tbaa !72
  %111 = sub nsw i64 %109, %110
  %112 = sub nsw i64 0, %111
  br label %113

113:                                              ; preds = %108, %104
  %114 = phi i64 [ %107, %104 ], [ %112, %108 ]
  %115 = icmp sgt i64 %114, 4
  br i1 %115, label %116, label %117

116:                                              ; preds = %113
  store i32 -1, ptr %5, align 4
  store i32 1, ptr %18, align 4
  br label %118

117:                                              ; preds = %113
  store i32 0, ptr %5, align 4
  store i32 1, ptr %18, align 4
  br label %118

118:                                              ; preds = %117, %116, %91, %48
  call void @llvm.lifetime.end.p0(i64 4, ptr %17) #10
  call void @llvm.lifetime.end.p0(i64 8, ptr %16) #10
  call void @llvm.lifetime.end.p0(i64 8, ptr %15) #10
  call void @llvm.lifetime.end.p0(i64 8, ptr %14) #10
  call void @llvm.lifetime.end.p0(i64 8, ptr %13) #10
  call void @llvm.lifetime.end.p0(i64 8, ptr %12) #10
  call void @llvm.lifetime.end.p0(i64 8, ptr %11) #10
  call void @llvm.lifetime.end.p0(i64 8, ptr %10) #10
  %119 = load i32, ptr %5, align 4
  ret i32 %119
}