; Function Attrs: nounwind uwtable
define internal i32 @gxf_seek(ptr noundef readonly captures(none) %0, i32 noundef %1, i64 noundef %2, i32 %3) #1 {
  %5 = getelementptr inbounds nuw i8, ptr %0, i64 48
  %6 = load ptr, ptr %5, align 8, !tbaa !36
  %7 = load ptr, ptr %6, align 8, !tbaa !37
  %8 = sext i32 %1 to i64
  %9 = getelementptr inbounds ptr, ptr %6, i64 %8
  %10 = load ptr, ptr %9, align 8, !tbaa !37
  %11 = getelementptr inbounds nuw i8, ptr %10, i64 40
  %12 = load i64, ptr %11, align 8, !tbaa !41
  %spec.select = tail call i64 @llvm.smax.i64(i64 %2, i64 %12)
  %13 = sub nsw i64 %spec.select, %12
  %14 = tail call i32 @av_index_search_timestamp(ptr noundef %7, i64 noundef %13, i32 noundef 5) #7
  %15 = icmp slt i32 %14, 0
  br i1 %15, label %44, label %16

16:                                               ; preds = %4
  %17 = getelementptr inbounds nuw i8, ptr %7, i64 320
  %18 = load ptr, ptr %17, align 8, !tbaa !61
  %19 = zext nneg i32 %14 to i64
  %20 = getelementptr inbounds nuw %struct.AVIndexEntry, ptr %18, i64 %19
  %21 = load i64, ptr %20, align 8, !tbaa !73
  %22 = getelementptr inbounds nuw i8, ptr %7, i64 328
  %23 = load i32, ptr %22, align 8, !tbaa !75
  %24 = add nsw i32 %23, -2
  %25 = icmp slt i32 %14, %24
  br i1 %25, label %26, label %30

26:                                               ; preds = %16
  %27 = getelementptr inbounds nuw i8, ptr %20, i64 48
  %28 = load i64, ptr %27, align 8, !tbaa !73
  %29 = sub i64 %28, %21
  br label %30

30:                                               ; preds = %26, %16
  %.034 = phi i64 [ %29, %26 ], [ 104857600, %16 ]
  %31 = getelementptr inbounds nuw i8, ptr %0, i64 32
  %32 = load ptr, ptr %31, align 8, !tbaa !11
  %33 = tail call i64 @avio_seek(ptr noundef %32, i64 noundef %21, i32 noundef 0) #7
  %34 = icmp slt i64 %33, 0
  br i1 %34, label %35, label %37

35:                                               ; preds = %30
  %36 = trunc i64 %33 to i32
  br label %44

37:                                               ; preds = %30
  %38 = tail call i64 @llvm.umax.i64(i64 %.034, i64 204800)
  %39 = trunc i64 %spec.select to i32
  %.val = load ptr, ptr %31, align 8, !tbaa !11
  %40 = tail call fastcc i64 @gxf_resync_media(ptr %.val, i64 noundef %38, i32 noundef %39)
  %41 = sub nsw i64 %40, %spec.select
  %42 = tail call i64 @llvm.abs.i64(i64 %41, i1 true)
  %43 = icmp samesign ugt i64 %42, 4
  %spec.select40 = sext i1 %43 to i32
  br label %44

44:                                               ; preds = %37, %4, %35
  %.0 = phi i32 [ %36, %35 ], [ -1, %4 ], [ %spec.select40, %37 ]
  ret i32 %.0
}